target datalayout = "e-m:e-p270:32:32-p271:32:32-p272:64:64-i64:64-i128:128-f80:128-n8:16:32:64-S128"
target triple = "x86_64-pc-linux-gnu"

%struct.option = type { i32, i32, ptr, ptr, ptr, ptr, i32, ptr, i64, ptr, i64, ptr }
%struct.repository = type { ptr, ptr, ptr, ptr, ptr, %struct.strmap, %struct.strmap, %struct.repo_path_cache, ptr, ptr, ptr, ptr, %struct.repo_settings, ptr, ptr, ptr, ptr, ptr, ptr, i32, i32, i32, ptr, ptr, i32, i32, i8 }
%struct.strmap = type { %struct.hashmap, ptr, i8 }
%struct.hashmap = type { ptr, ptr, ptr, i32, i32, i32, i32, i8 }
%struct.repo_path_cache = type { ptr, ptr, ptr, ptr, ptr, ptr, ptr }
%struct.repo_settings = type { i32, i32, i32, i32, i32, i32, i32, i32, i32, i32, i32, i32, ptr, i32, i32, i32, i32, i32, i32, i32, i64, i64, i64 }

@.str = private unnamed_addr constant [4 x i8] c"add\00", align 1
@.str.1 = private unnamed_addr constant [6 x i8] c"prune\00", align 1
@.str.2 = private unnamed_addr constant [5 x i8] c"list\00", align 1
@.str.3 = private unnamed_addr constant [5 x i8] c"lock\00", align 1
@.str.4 = private unnamed_addr constant [7 x i8] c"unlock\00", align 1
@.str.5 = private unnamed_addr constant [5 x i8] c"move\00", align 1
@.str.6 = private unnamed_addr constant [7 x i8] c"remove\00", align 1
@.str.7 = private unnamed_addr constant [7 x i8] c"repair\00", align 1
@.str.8 = private unnamed_addr constant [1 x i8] zeroinitializer, align 1
@git_worktree_usage = internal constant [9 x ptr] [ptr @.str.54, ptr @.str.125, ptr @.str.148, ptr @.str.158, ptr @.str.112, ptr @.str.167, ptr @.str.175, ptr @.str.150, ptr null], align 16
@the_repository = external global ptr, align 8

; Function Attrs: inlinehint nounwind uwtable
define internal void @git_config(ptr noundef %0, ptr noundef %1) #3 {
  %3 = alloca ptr, align 8
  %4 = alloca ptr, align 8
  store ptr %0, ptr %3, align 8, !tbaa !15
  store ptr %1, ptr %4, align 8, !tbaa !15
  %5 = load ptr, ptr @the_repository, align 8, !tbaa !13
  %6 = load ptr, ptr %3, align 8, !tbaa !15
  %7 = load ptr, ptr %4, align 8, !tbaa !15
  call void @repo_config(ptr noundef %5, ptr noundef %6, ptr noundef %7)
  ret void
}

; Function Attrs: nounwind uwtable
define dso_local i32 @cmd_worktree(i32 noundef %0, ptr noundef %1, ptr noundef %2, ptr noundef %3) #0 {
  %5 = alloca i32, align 4
  %6 = alloca ptr, align 8
  %7 = alloca ptr, align 8
  %8 = alloca ptr, align 8
  %9 = alloca ptr, align 8
  %10 = alloca [9 x %struct.option], align 16
  store i32 %0, ptr %5, align 4, !tbaa !4
  store ptr %1, ptr %6, align 8, !tbaa !8
  store ptr %2, ptr %7, align 8, !tbaa !11
  store ptr %3, ptr %8, align 8, !tbaa !13
  call void @llvm.lifetime.start.p0(i64 8, ptr %9) #11
  store ptr null, ptr %9, align 8, !tbaa !15
  call void @llvm.lifetime.start.p0(i64 792, ptr %10) #11
  %11 = getelementptr inbounds nuw %struct.option, ptr %10, i32 0, i32 0
  store i32 4, ptr %11, align 8, !tbaa !16
  %12 = getelementptr inbounds nuw %struct.option, ptr %10, i32 0, i32 1
  store i32 0, ptr %12, align 4, !tbaa !19
  %13 = getelementptr inbounds nuw %struct.option, ptr %10, i32 0, i32 2
  store ptr @.str, ptr %13, align 8, !tbaa !20
  %14 = getelementptr inbounds nuw %struct.option, ptr %10, i32 0, i32 3
  store ptr %9, ptr %14, align 8, !tbaa !21
  %15 = getelementptr inbounds nuw %struct.option, ptr %10, i32 0, i32 4
  store ptr null, ptr %15, align 8, !tbaa !22
  %16 = getelementptr inbounds nuw %struct.option, ptr %10, i32 0, i32 5
  store ptr null, ptr %16, align 8, !tbaa !23
  %17 = getelementptr inbounds nuw %struct.option, ptr %10, i32 0, i32 6
  store i32 0, ptr %17, align 8, !tbaa !24
  %18 = getelementptr i8, ptr %10, i64 44
  call void @llvm.memset.p0.i64(ptr align 4 %18, i8 0, i64 4, i1 false)
  %19 = getelementptr inbounds nuw %struct.option, ptr %10, i32 0, i32 7
  store ptr null, ptr %19, align 8, !tbaa !25
  %20 = getelementptr inbounds nuw %struct.option, ptr %10, i32 0, i32 8
  store i64 0, ptr %20, align 8, !tbaa !26
  %21 = getelementptr inbounds nuw %struct.option, ptr %10, i32 0, i32 9
  store ptr null, ptr %21, align 8, !tbaa !27
  %22 = getelementptr inbounds nuw %struct.option, ptr %10, i32 0, i32 10
  store i64 0, ptr %22, align 8, !tbaa !28
  %23 = getelementptr inbounds nuw %struct.option, ptr %10, i32 0, i32 11
  store ptr @add, ptr %23, align 8, !tbaa !29
  %24 = getelementptr inbounds %struct.option, ptr %10, i64 1
  %25 = getelementptr inbounds nuw %struct.option, ptr %24, i32 0, i32 0
  store i32 4, ptr %25, align 8, !tbaa !16
  %26 = getelementptr inbounds nuw %struct.option, ptr %24, i32 0, i32 1
  store i32 0, ptr %26, align 4, !tbaa !19
  %27 = getelementptr inbounds nuw %struct.option, ptr %24, i32 0, i32 2
  store ptr @.str.1, ptr %27, align 8, !tbaa !20
  %28 = getelementptr inbounds nuw %struct.option, ptr %24, i32 0, i32 3
  store ptr %9, ptr %28, align 8, !tbaa !21
  %29 = getelementptr inbounds nuw %struct.option, ptr %24, i32 0, i32 4
  store ptr null, ptr %29, align 8, !tbaa !22
  %30 = getelementptr inbounds nuw %struct.option, ptr %24, i32 0, i32 5
  store ptr null, ptr %30, align 8, !tbaa !23
  %31 = getelementptr inbounds nuw %struct.option, ptr %24, i32 0, i32 6
  store i32 0, ptr %31, align 8, !tbaa !24
  %32 = getelementptr i8, ptr %24, i64 44
  call void @llvm.memset.p0.i64(ptr align 4 %32, i8 0, i64 4, i1 false)
  %33 = getelementptr inbounds nuw %struct.option, ptr %24, i32 0, i32 7
  store ptr null, ptr %33, align 8, !tbaa !25
  %34 = getelementptr inbounds nuw %struct.option, ptr %24, i32 0, i32 8
  store i64 0, ptr %34, align 8, !tbaa !26
  %35 = getelementptr inbounds nuw %struct.option, ptr %24, i32 0, i32 9
  store ptr null, ptr %35, align 8, !tbaa !27
  %36 = getelementptr inbounds nuw %struct.option, ptr %24, i32 0, i32 10
  store i64 0, ptr %36, align 8, !tbaa !28
  %37 = getelementptr inbounds nuw %struct.option, ptr %24, i32 0, i32 11
  store ptr @prune, ptr %37, align 8, !tbaa !29
  %38 = getelementptr inbounds %struct.option, ptr %10, i64 2
  %39 = getelementptr inbounds nuw %struct.option, ptr %38, i32 0, i32 0
  store i32 4, ptr %39, align 8, !tbaa !16
  %40 = getelementptr inbounds nuw %struct.option, ptr %38, i32 0, i32 1
  store i32 0, ptr %40, align 4, !tbaa !19
  %41 = getelementptr inbounds nuw %struct.option, ptr %38, i32 0, i32 2
  store ptr @.str.2, ptr %41, align 8, !tbaa !20
  %42 = getelementptr inbounds nuw %struct.option, ptr %38, i32 0, i32 3
  store ptr %9, ptr %42, align 8, !tbaa !21
  %43 = getelementptr inbounds nuw %struct.option, ptr %38, i32 0, i32 4
  store ptr null, ptr %43, align 8, !tbaa !22
  %44 = getelementptr inbounds nuw %struct.option, ptr %38, i32 0, i32 5
  store ptr null, ptr %44, align 8, !tbaa !23
  %45 = getelementptr inbounds nuw %struct.option, ptr %38, i32 0, i32 6
  store i32 0, ptr %45, align 8, !tbaa !24
  %46 = getelementptr i8, ptr %38, i64 44
  call void @llvm.memset.p0.i64(ptr align 4 %46, i8 0, i64 4, i1 false)
  %47 = getelementptr inbounds nuw %struct.option, ptr %38, i32 0, i32 7
  store ptr null, ptr %47, align 8, !tbaa !25
  %48 = getelementptr inbounds nuw %struct.option, ptr %38, i32 0, i32 8
  store i64 0, ptr %48, align 8, !tbaa !26
  %49 = getelementptr inbounds nuw %struct.option, ptr %38, i32 0, i32 9
  store ptr null, ptr %49, align 8, !tbaa !27
  %50 = getelementptr inbounds nuw %struct.option, ptr %38, i32 0, i32 10
  store i64 0, ptr %50, align 8, !tbaa !28
  %51 = getelementptr inbounds nuw %struct.option, ptr %38, i32 0, i32 11
  store ptr @list, ptr %51, align 8, !tbaa !29
  %52 = getelementptr inbounds %struct.option, ptr %10, i64 3
  %53 = getelementptr inbounds nuw %struct.option, ptr %52, i32 0, i32 0
  store i32 4, ptr %53, align 8, !tbaa !16
  %54 = getelementptr inbounds nuw %struct.option, ptr %52, i32 0, i32 1
  store i32 0, ptr %54, align 4, !tbaa !19
  %55 = getelementptr inbounds nuw %struct.option, ptr %52, i32 0, i32 2
  store ptr @.str.3, ptr %55, align 8, !tbaa !20
  %56 = getelementptr inbounds nuw %struct.option, ptr %52, i32 0, i32 3
  store ptr %9, ptr %56, align 8, !tbaa !21
  %57 = getelementptr inbounds nuw %struct.option, ptr %52, i32 0, i32 4
  store ptr null, ptr %57, align 8, !tbaa !22
  %58 = getelementptr inbounds nuw %struct.option, ptr %52, i32 0, i32 5
  store ptr null, ptr %58, align 8, !tbaa !23
  %59 = getelementptr inbounds nuw %struct.option, ptr %52, i32 0, i32 6
  store i32 0, ptr %59, align 8, !tbaa !24
  %60 = getelementptr i8, ptr %52, i64 44
  call void @llvm.memset.p0.i64(ptr align 4 %60, i8 0, i64 4, i1 false)
  %61 = getelementptr inbounds nuw %struct.option, ptr %52, i32 0, i32 7
  store ptr null, ptr %61, align 8, !tbaa !25
  %62 = getelementptr inbounds nuw %struct.option, ptr %52, i32 0, i32 8
  store i64 0, ptr %62, align 8, !tbaa !26
  %63 = getelementptr inbounds nuw %struct.option, ptr %52, i32 0, i32 9
  store ptr null, ptr %63, align 8, !tbaa !27
  %64 = getelementptr inbounds nuw %struct.option, ptr %52, i32 0, i32 10
  store i64 0, ptr %64, align 8, !tbaa !28
  %65 = getelementptr inbounds nuw %struct.option, ptr %52, i32 0, i32 11
  store ptr @lock_worktree, ptr %65, align 8, !tbaa !29
  %66 = getelementptr inbounds %struct.option, ptr %10, i64 4
  %67 = getelementptr inbounds nuw %struct.option, ptr %66, i32 0, i32 0
  store i32 4, ptr %67, align 8, !tbaa !16
  %68 = getelementptr inbounds nuw %struct.option, ptr %66, i32 0, i32 1
  store i32 0, ptr %68, align 4, !tbaa !19
  %69 = getelementptr inbounds nuw %struct.option, ptr %66, i32 0, i32 2
  store ptr @.str.4, ptr %69, align 8, !tbaa !20
  %70 = getelementptr inbounds nuw %struct.option, ptr %66, i32 0, i32 3
  store ptr %9, ptr %70, align 8, !tbaa !21
  %71 = getelementptr inbounds nuw %struct.option, ptr %66, i32 0, i32 4
  store ptr null, ptr %71, align 8, !tbaa !22
  %72 = getelementptr inbounds nuw %struct.option, ptr %66, i32 0, i32 5
  store ptr null, ptr %72, align 8, !tbaa !23
  %73 = getelementptr inbounds nuw %struct.option, ptr %66, i32 0, i32 6
  store i32 0, ptr %73, align 8, !tbaa !24
  %74 = getelementptr i8, ptr %66, i64 44
  call void @llvm.memset.p0.i64(ptr align 4 %74, i8 0, i64 4, i1 false)
  %75 = getelementptr inbounds nuw %struct.option, ptr %66, i32 0, i32 7
  store ptr null, ptr %75, align 8, !tbaa !25
  %76 = getelementptr inbounds nuw %struct.option, ptr %66, i32 0, i32 8
  store i64 0, ptr %76, align 8, !tbaa !26
  %77 = getelementptr inbounds nuw %struct.option, ptr %66, i32 0, i32 9
  store ptr null, ptr %77, align 8, !tbaa !27
  %78 = getelementptr inbounds nuw %struct.option, ptr %66, i32 0, i32 10
  store i64 0, ptr %78, align 8, !tbaa !28
  %79 = getelementptr inbounds nuw %struct.option, ptr %66, i32 0, i32 11
  store ptr @unlock_worktree, ptr %79, align 8, !tbaa !29
  %80 = getelementptr inbounds %struct.option, ptr %10, i64 5
  %81 = getelementptr inbounds nuw %struct.option, ptr %80, i32 0, i32 0
  store i32 4, ptr %81, align 8, !tbaa !16
  %82 = getelementptr inbounds nuw %struct.option, ptr %80, i32 0, i32 1
  store i32 0, ptr %82, align 4, !tbaa !19
  %83 = getelementptr inbounds nuw %struct.option, ptr %80, i32 0, i32 2
  store ptr @.str.5, ptr %83, align 8, !tbaa !20
  %84 = getelementptr inbounds nuw %struct.option, ptr %80, i32 0, i32 3
  store ptr %9, ptr %84, align 8, !tbaa !21
  %85 = getelementptr inbounds nuw %struct.option, ptr %80, i32 0, i32 4
  store ptr null, ptr %85, align 8, !tbaa !22
  %86 = getelementptr inbounds nuw %struct.option, ptr %80, i32 0, i32 5
  store ptr null, ptr %86, align 8, !tbaa !23
  %87 = getelementptr inbounds nuw %struct.option, ptr %80, i32 0, i32 6
  store i32 0, ptr %87, align 8, !tbaa !24
  %88 = getelementptr i8, ptr %80, i64 44
  call void @llvm.memset.p0.i64(ptr align 4 %88, i8 0, i64 4, i1 false)
  %89 = getelementptr inbounds nuw %struct.option, ptr %80, i32 0, i32 7
  store ptr null, ptr %89, align 8, !tbaa !25
  %90 = getelementptr inbounds nuw %struct.option, ptr %80, i32 0, i32 8
  store i64 0, ptr %90, align 8, !tbaa !26
  %91 = getelementptr inbounds nuw %struct.option, ptr %80, i32 0, i32 9
  store ptr null, ptr %91, align 8, !tbaa !27
  %92 = getelementptr inbounds nuw %struct.option, ptr %80, i32 0, i32 10
  store i64 0, ptr %92, align 8, !tbaa !28
  %93 = getelementptr inbounds nuw %struct.option, ptr %80, i32 0, i32 11
  store ptr @move_worktree, ptr %93, align 8, !tbaa !29
  %94 = getelementptr inbounds %struct.option, ptr %10, i64 6
  %95 = getelementptr inbounds nuw %struct.option, ptr %94, i32 0, i32 0
  store i32 4, ptr %95, align 8, !tbaa !16
  %96 = getelementptr inbounds nuw %struct.option, ptr %94, i32 0, i32 1
  store i32 0, ptr %96, align 4, !tbaa !19
  %97 = getelementptr inbounds nuw %struct.option, ptr %94, i32 0, i32 2
  store ptr @.str.6, ptr %97, align 8, !tbaa !20
  %98 = getelementptr inbounds nuw %struct.option, ptr %94, i32 0, i32 3
  store ptr %9, ptr %98, align 8, !tbaa !21
  %99 = getelementptr inbounds nuw %struct.option, ptr %94, i32 0, i32 4
  store ptr null, ptr %99, align 8, !tbaa !22
  %100 = getelementptr inbounds nuw %struct.option, ptr %94, i32 0, i32 5
  store ptr null, ptr %100, align 8, !tbaa !23
  %101 = getelementptr inbounds nuw %struct.option, ptr %94, i32 0, i32 6
  store i32 0, ptr %101, align 8, !tbaa !24
  %102 = getelementptr i8, ptr %94, i64 44
  call void @llvm.memset.p0.i64(ptr align 4 %102, i8 0, i64 4, i1 false)
  %103 = getelementptr inbounds nuw %struct.option, ptr %94, i32 0, i32 7
  store ptr null, ptr %103, align 8, !tbaa !25
  %104 = getelementptr inbounds nuw %struct.option, ptr %94, i32 0, i32 8
  store i64 0, ptr %104, align 8, !tbaa !26
  %105 = getelementptr inbounds nuw %struct.option, ptr %94, i32 0, i32 9
  store ptr null, ptr %105, align 8, !tbaa !27
  %106 = getelementptr inbounds nuw %struct.option, ptr %94, i32 0, i32 10
  store i64 0, ptr %106, align 8, !tbaa !28
  %107 = getelementptr inbounds nuw %struct.option, ptr %94, i32 0, i32 11
  store ptr @remove_worktree, ptr %107, align 8, !tbaa !29
  %108 = getelementptr inbounds %struct.option, ptr %10, i64 7
  %109 = getelementptr inbounds nuw %struct.option, ptr %108, i32 0, i32 0
  store i32 4, ptr %109, align 8, !tbaa !16
  %110 = getelementptr inbounds nuw %struct.option, ptr %108, i32 0, i32 1
  store i32 0, ptr %110, align 4, !tbaa !19
  %111 = getelementptr inbounds nuw %struct.option, ptr %108, i32 0, i32 2
  store ptr @.str.7, ptr %111, align 8, !tbaa !20
  %112 = getelementptr inbounds nuw %struct.option, ptr %108, i32 0, i32 3
  store ptr %9, ptr %112, align 8, !tbaa !21
  %113 = getelementptr inbounds nuw %struct.option, ptr %108, i32 0, i32 4
  store ptr null, ptr %113, align 8, !tbaa !22
  %114 = getelementptr inbounds nuw %struct.option, ptr %108, i32 0, i32 5
  store ptr null, ptr %114, align 8, !tbaa !23
  %115 = getelementptr inbounds nuw %struct.option, ptr %108, i32 0, i32 6
  store i32 0, ptr %115, align 8, !tbaa !24
  %116 = getelementptr i8, ptr %108, i64 44
  call void @llvm.memset.p0.i64(ptr align 4 %116, i8 0, i64 4, i1 false)
  %117 = getelementptr inbounds nuw %struct.option, ptr %108, i32 0, i32 7
  store ptr null, ptr %117, align 8, !tbaa !25
  %118 = getelementptr inbounds nuw %struct.option, ptr %108, i32 0, i32 8
  store i64 0, ptr %118, align 8, !tbaa !26
  %119 = getelementptr inbounds nuw %struct.option, ptr %108, i32 0, i32 9
  store ptr null, ptr %119, align 8, !tbaa !27
  %120 = getelementptr inbounds nuw %struct.option, ptr %108, i32 0, i32 10
  store i64 0, ptr %120, align 8, !tbaa !28
  %121 = getelementptr inbounds nuw %struct.option, ptr %108, i32 0, i32 11
  store ptr @repair, ptr %121, align 8, !tbaa !29
  %122 = getelementptr inbounds %struct.option, ptr %10, i64 8
  call void @llvm.memset.p0.i64(ptr align 8 %122, i8 0, i64 88, i1 false)
  %123 = getelementptr inbounds nuw %struct.option, ptr %122, i32 0, i32 0
  store i32 0, ptr %123, align 8, !tbaa !16
  call void @git_config(ptr noundef @git_worktree_config, ptr noundef null)
  %124 = load ptr, ptr %7, align 8, !tbaa !11
  %125 = icmp ne ptr %124, null
  br i1 %125, label %127, label %126

126:                                              ; preds = %4
  store ptr @.str.8, ptr %7, align 8, !tbaa !11
  br label %127

127:                                              ; preds = %126, %4
  %128 = load i32, ptr %5, align 4, !tbaa !4
  %129 = load ptr, ptr %6, align 8, !tbaa !8
  %130 = load ptr, ptr %7, align 8, !tbaa !11
  %131 = getelementptr inbounds [9 x %struct.option], ptr %10, i64 0, i64 0
  %132 = call i32 @parse_options(i32 noundef %128, ptr noundef %129, ptr noundef %130, ptr noundef %131, ptr noundef @git_worktree_usage, i32 noundef 0)
  store i32 %132, ptr %5, align 4, !tbaa !4
  %133 = load ptr, ptr @the_repository, align 8, !tbaa !13
  call void @prepare_repo_settings(ptr noundef %133)
  %134 = load ptr, ptr @the_repository, align 8, !tbaa !13
  %135 = getelementptr inbounds nuw %struct.repository, ptr %134, i32 0, i32 12
  %136 = getelementptr inbounds nuw %struct.repo_settings, ptr %135, i32 0, i32 6
  store i32 0, ptr %136, align 8, !tbaa !30
  %137 = load ptr, ptr %9, align 8, !tbaa !15
  %138 = load i32, ptr %5, align 4, !tbaa !4
  %139 = load ptr, ptr %6, align 8, !tbaa !8
  %140 = load ptr, ptr %7, align 8, !tbaa !11
  %141 = load ptr, ptr %8, align 8, !tbaa !13
  %142 = call i32 %137(i32 noundef %138, ptr noundef %139, ptr noundef %140, ptr noundef %141)
  call void @llvm.lifetime.end.p0(i64 792, ptr %10) #11
  call void @llvm.lifetime.end.p0(i64 8, ptr %9) #11
  ret i32 %142
}