; Function Attrs: nounwind uwtable
define dso_local i32 @cmd_worktree(i32 noundef %0, ptr noundef %1, ptr noundef %2, ptr noundef %3) local_unnamed_addr #0 {
  %5 = alloca ptr, align 8
  %6 = alloca [9 x %struct.option], align 16
  call void @llvm.lifetime.start.p0(i64 8, ptr nonnull %5) #18
  store ptr null, ptr %5, align 8, !tbaa !4
  call void @llvm.lifetime.start.p0(i64 792, ptr nonnull %6) #18
  store i32 4, ptr %6, align 16, !tbaa !8
  %7 = getelementptr inbounds nuw i8, ptr %6, i64 4
  store i32 0, ptr %7, align 4, !tbaa !13
  %8 = getelementptr inbounds nuw i8, ptr %6, i64 8
  store ptr @.str, ptr %8, align 8, !tbaa !14
  %9 = getelementptr inbounds nuw i8, ptr %6, i64 16
  store ptr %5, ptr %9, align 16, !tbaa !15
  %10 = getelementptr inbounds nuw i8, ptr %6, i64 24
  %11 = getelementptr inbounds nuw i8, ptr %6, i64 80
  call void @llvm.memset.p0.i64(ptr noundef nonnull align 8 dereferenceable(56) %10, i8 0, i64 56, i1 false)
  store ptr @add, ptr %11, align 16, !tbaa !16
  %12 = getelementptr inbounds nuw i8, ptr %6, i64 88
  store i32 4, ptr %12, align 8, !tbaa !8
  %13 = getelementptr inbounds nuw i8, ptr %6, i64 92
  store i32 0, ptr %13, align 4, !tbaa !13
  %14 = getelementptr inbounds nuw i8, ptr %6, i64 96
  store ptr @.str.1, ptr %14, align 16, !tbaa !14
  %15 = getelementptr inbounds nuw i8, ptr %6, i64 104
  store ptr %5, ptr %15, align 8, !tbaa !15
  %16 = getelementptr inbounds nuw i8, ptr %6, i64 112
  %17 = getelementptr inbounds nuw i8, ptr %6, i64 168
  call void @llvm.memset.p0.i64(ptr noundef nonnull align 16 dereferenceable(56) %16, i8 0, i64 56, i1 false)
  store ptr @prune, ptr %17, align 8, !tbaa !16
  %18 = getelementptr inbounds nuw i8, ptr %6, i64 176
  store i32 4, ptr %18, align 16, !tbaa !8
  %19 = getelementptr inbounds nuw i8, ptr %6, i64 180
  store i32 0, ptr %19, align 4, !tbaa !13
  %20 = getelementptr inbounds nuw i8, ptr %6, i64 184
  store ptr @.str.2, ptr %20, align 8, !tbaa !14
  %21 = getelementptr inbounds nuw i8, ptr %6, i64 192
  store ptr %5, ptr %21, align 16, !tbaa !15
  %22 = getelementptr inbounds nuw i8, ptr %6, i64 200
  %23 = getelementptr inbounds nuw i8, ptr %6, i64 256
  call void @llvm.memset.p0.i64(ptr noundef nonnull align 8 dereferenceable(56) %22, i8 0, i64 56, i1 false)
  store ptr @list, ptr %23, align 16, !tbaa !16
  %24 = getelementptr inbounds nuw i8, ptr %6, i64 264
  store i32 4, ptr %24, align 8, !tbaa !8
  %25 = getelementptr inbounds nuw i8, ptr %6, i64 268
  store i32 0, ptr %25, align 4, !tbaa !13
  %26 = getelementptr inbounds nuw i8, ptr %6, i64 272
  store ptr @.str.3, ptr %26, align 16, !tbaa !14
  %27 = getelementptr inbounds nuw i8, ptr %6, i64 280
  store ptr %5, ptr %27, align 8, !tbaa !15
  %28 = getelementptr inbounds nuw i8, ptr %6, i64 288
  %29 = getelementptr inbounds nuw i8, ptr %6, i64 344
  call void @llvm.memset.p0.i64(ptr noundef nonnull align 16 dereferenceable(56) %28, i8 0, i64 56, i1 false)
  store ptr @lock_worktree, ptr %29, align 8, !tbaa !16
  %30 = getelementptr inbounds nuw i8, ptr %6, i64 352
  store i32 4, ptr %30, align 16, !tbaa !8
  %31 = getelementptr inbounds nuw i8, ptr %6, i64 356
  store i32 0, ptr %31, align 4, !tbaa !13
  %32 = getelementptr inbounds nuw i8, ptr %6, i64 360
  store ptr @.str.4, ptr %32, align 8, !tbaa !14
  %33 = getelementptr inbounds nuw i8, ptr %6, i64 368
  store ptr %5, ptr %33, align 16, !tbaa !15
  %34 = getelementptr inbounds nuw i8, ptr %6, i64 376
  %35 = getelementptr inbounds nuw i8, ptr %6, i64 432
  call void @llvm.memset.p0.i64(ptr noundef nonnull align 8 dereferenceable(56) %34, i8 0, i64 56, i1 false)
  store ptr @unlock_worktree, ptr %35, align 16, !tbaa !16
  %36 = getelementptr inbounds nuw i8, ptr %6, i64 440
  store i32 4, ptr %36, align 8, !tbaa !8
  %37 = getelementptr inbounds nuw i8, ptr %6, i64 444
  store i32 0, ptr %37, align 4, !tbaa !13
  %38 = getelementptr inbounds nuw i8, ptr %6, i64 448
  store ptr @.str.5, ptr %38, align 16, !tbaa !14
  %39 = getelementptr inbounds nuw i8, ptr %6, i64 456
  store ptr %5, ptr %39, align 8, !tbaa !15
  %40 = getelementptr inbounds nuw i8, ptr %6, i64 464
  %41 = getelementptr inbounds nuw i8, ptr %6, i64 520
  call void @llvm.memset.p0.i64(ptr noundef nonnull align 16 dereferenceable(56) %40, i8 0, i64 56, i1 false)
  store ptr @move_worktree, ptr %41, align 8, !tbaa !16
  %42 = getelementptr inbounds nuw i8, ptr %6, i64 528
  store i32 4, ptr %42, align 16, !tbaa !8
  %43 = getelementptr inbounds nuw i8, ptr %6, i64 532
  store i32 0, ptr %43, align 4, !tbaa !13
  %44 = getelementptr inbounds nuw i8, ptr %6, i64 536
  store ptr @.str.6, ptr %44, align 8, !tbaa !14
  %45 = getelementptr inbounds nuw i8, ptr %6, i64 544
  store ptr %5, ptr %45, align 16, !tbaa !15
  %46 = getelementptr inbounds nuw i8, ptr %6, i64 552
  %47 = getelementptr inbounds nuw i8, ptr %6, i64 608
  call void @llvm.memset.p0.i64(ptr noundef nonnull align 8 dereferenceable(56) %46, i8 0, i64 56, i1 false)
  store ptr @remove_worktree, ptr %47, align 16, !tbaa !16
  %48 = getelementptr inbounds nuw i8, ptr %6, i64 616
  store i32 4, ptr %48, align 8, !tbaa !8
  %49 = getelementptr inbounds nuw i8, ptr %6, i64 620
  store i32 0, ptr %49, align 4, !tbaa !13
  %50 = getelementptr inbounds nuw i8, ptr %6, i64 624
  store ptr @.str.7, ptr %50, align 16, !tbaa !14
  %51 = getelementptr inbounds nuw i8, ptr %6, i64 632
  store ptr %5, ptr %51, align 8, !tbaa !15
  %52 = getelementptr inbounds nuw i8, ptr %6, i64 640
  %53 = getelementptr inbounds nuw i8, ptr %6, i64 696
  call void @llvm.memset.p0.i64(ptr noundef nonnull align 16 dereferenceable(56) %52, i8 0, i64 56, i1 false)
  store ptr @repair, ptr %53, align 8, !tbaa !16
  %54 = getelementptr inbounds nuw i8, ptr %6, i64 704
  call void @llvm.memset.p0.i64(ptr noundef nonnull align 16 dereferenceable(88) %54, i8 0, i64 88, i1 false)
  %55 = load ptr, ptr @the_repository, align 8, !tbaa !17
  call void @repo_config(ptr noundef %55, ptr noundef nonnull @git_worktree_config, ptr noundef null) #18
  %.not = icmp eq ptr %2, null
  %spec.store.select = select i1 %.not, ptr @.str.8, ptr %2
  %56 = call i32 @parse_options(i32 noundef %0, ptr noundef %1, ptr noundef nonnull %spec.store.select, ptr noundef nonnull %6, ptr noundef nonnull @git_worktree_usage, i32 noundef 0) #18
  %57 = load ptr, ptr @the_repository, align 8, !tbaa !17
  call void @prepare_repo_settings(ptr noundef %57) #18
  %58 = load ptr, ptr @the_repository, align 8, !tbaa !17
  %59 = getelementptr inbounds nuw i8, ptr %58, i64 280
  store i32 0, ptr %59, align 8, !tbaa !19
  %60 = load ptr, ptr %5, align 8, !tbaa !4
  %61 = call i32 %60(i32 noundef %56, ptr noundef %1, ptr noundef nonnull %spec.store.select, ptr noundef %3) #18
  call void @llvm.lifetime.end.p0(i64 792, ptr nonnull %6) #18
  call void @llvm.lifetime.end.p0(i64 8, ptr nonnull %5) #18
  ret i32 %61
}